target datalayout = "e-m:e-p270:32:32-p271:32:32-p272:64:64-i64:64-i128:128-f80:128-n8:16:32:64-S128"
target triple = "x86_64-pc-linux-gnu"

%"class.std::__cxx11::basic_string" = type { %"struct.std::__cxx11::basic_string<char>::_Alloc_hider", i64, %union.anon }
%"struct.std::__cxx11::basic_string<char>::_Alloc_hider" = type { ptr }
%union.anon = type { i64, [8 x i8] }
%"class.LightGBM::TextReader" = type <{ ptr, %"class.std::vector", %"class.std::__cxx11::basic_string", %"class.std::__cxx11::basic_string", i8, [7 x i8], i64, i32, [4 x i8] }>
%"class.std::vector" = type { %"struct.std::_Vector_base" }
%"struct.std::_Vector_base" = type { %"struct.std::_Vector_base<std::__cxx11::basic_string<char>, std::allocator<std::__cxx11::basic_string<char>>>::_Vector_impl" }
%"struct.std::_Vector_base<std::__cxx11::basic_string<char>, std::allocator<std::__cxx11::basic_string<char>>>::_Vector_impl" = type { %"struct.std::_Vector_base<std::__cxx11::basic_string<char>, std::allocator<std::__cxx11::basic_string<char>>>::_Vector_impl_data" }
%"struct.std::_Vector_base<std::__cxx11::basic_string<char>, std::allocator<std::__cxx11::basic_string<char>>>::_Vector_impl_data" = type { ptr, ptr, ptr }
%"class.std::chrono::time_point" = type { %"class.std::chrono::duration" }
%"class.std::chrono::duration" = type { i64 }
%"class.std::vector.6" = type { %"struct.std::_Vector_base.7" }
%"struct.std::_Vector_base.7" = type { %"struct.std::_Vector_base<char, std::allocator<char>>::_Vector_impl" }
%"struct.std::_Vector_base<char, std::allocator<char>>::_Vector_impl" = type { %"struct.std::_Vector_base<char, std::allocator<char>>::_Vector_impl_data" }
%"struct.std::_Vector_base<char, std::allocator<char>>::_Vector_impl_data" = type { ptr, ptr, ptr }
%"class.std::chrono::duration.8" = type { double }

@.str.8 = private unnamed_addr constant [35 x i8] c"Time for loading model: %f seconds\00", align 1

; Function Attrs: mustprogress nounwind uwtable
define linkonce_odr void @_ZNSt6chrono8durationIdSt5ratioILl1ELl1000EEEC2IdvEERKT_(ptr noundef nonnull align 8 dereferenceable(8) %0, ptr noundef nonnull align 8 dereferenceable(8) %1) unnamed_addr #5 comdat align 2 {
  %3 = alloca ptr, align 8
  %4 = alloca ptr, align 8
  store ptr %0, ptr %3, align 8
  store ptr %1, ptr %4, align 8
  %5 = load ptr, ptr %3, align 8
  %6 = getelementptr inbounds %"class.std::chrono::duration.8", ptr %5, i32 0, i32 0
  %7 = load ptr, ptr %4, align 8
  %8 = load double, ptr %7, align 8
  store double %8, ptr %6, align 8
  ret void
}

; Function Attrs: mustprogress uwtable
define linkonce_odr double @_ZNSt6chrono20__duration_cast_implINS_8durationIdSt5ratioILl1ELl1000EEEES2_ILl1ELl1000000EEdLb1ELb0EE6__castIlS2_ILl1ELl1000000000EEEES4_RKNS1_IT_T0_EE(ptr noundef nonnull align 8 dereferenceable(8) %0) #4 comdat align 2 {
  %2 = alloca %"class.std::chrono::duration.8", align 8
  %3 = alloca ptr, align 8
  %4 = alloca double, align 8
  store ptr %0, ptr %3, align 8
  %5 = load ptr, ptr %3, align 8
  %6 = call noundef i64 @_ZNKSt6chrono8durationIlSt5ratioILl1ELl1000000000EEE5countEv(ptr noundef nonnull align 8 dereferenceable(8) %5)
  %7 = sitofp i64 %6 to double
  %8 = fdiv double %7, 1.000000e+06
  store double %8, ptr %4, align 8
  call void @_ZNSt6chrono8durationIdSt5ratioILl1ELl1000EEEC2IdvEERKT_(ptr noundef nonnull align 8 dereferenceable(8) %2, ptr noundef nonnull align 8 dereferenceable(8) %4)
  %9 = getelementptr inbounds %"class.std::chrono::duration.8", ptr %2, i32 0, i32 0
  %10 = load double, ptr %9, align 8
  ret double %10
}

; Function Attrs: mustprogress nounwind uwtable
define linkonce_odr void @_ZNSt6chrono8durationIlSt5ratioILl1ELl1000000000EEEC2IlvEERKT_(ptr noundef nonnull align 8 dereferenceable(8) %0, ptr noundef nonnull align 8 dereferenceable(8) %1) unnamed_addr #5 comdat align 2 {
  %3 = alloca ptr, align 8
  %4 = alloca ptr, align 8
  store ptr %0, ptr %3, align 8
  store ptr %1, ptr %4, align 8
  %5 = load ptr, ptr %3, align 8
  %6 = getelementptr inbounds %"class.std::chrono::duration", ptr %5, i32 0, i32 0
  %7 = load ptr, ptr %4, align 8
  %8 = load i64, ptr %7, align 8
  store i64 %8, ptr %6, align 8
  ret void
}

; Function Attrs: mustprogress nounwind uwtable
define linkonce_odr noundef i64 @_ZNKSt6chrono8durationIlSt5ratioILl1ELl1000000000EEE5countEv(ptr noundef nonnull align 8 dereferenceable(8) %0) #5 comdat align 2 {
  %2 = alloca ptr, align 8
  store ptr %0, ptr %2, align 8
  %3 = load ptr, ptr %2, align 8
  %4 = getelementptr inbounds %"class.std::chrono::duration", ptr %3, i32 0, i32 0
  %5 = load i64, ptr %4, align 8
  ret i64 %5
}

; Function Attrs: mustprogress uwtable
define linkonce_odr double @_ZNSt6chronomlIdSt5ratioILl1ELl1000EEdEENS_8durationINSt9enable_ifIXsr14is_convertibleIRKT1_NSt11common_typeIJT_S5_EE4typeEEE5valueESB_E4typeET0_EERKNS3_IS9_SE_EES7_(ptr noundef nonnull align 8 dereferenceable(8) %0, ptr noundef nonnull align 8 dereferenceable(8) %1) #4 comdat {
  %3 = alloca %"class.std::chrono::duration.8", align 8
  %4 = alloca ptr, align 8
  %5 = alloca ptr, align 8
  %6 = alloca double, align 8
  %7 = alloca %"class.std::chrono::duration.8", align 8
  store ptr %0, ptr %4, align 8
  store ptr %1, ptr %5, align 8
  %8 = load ptr, ptr %4, align 8
  call void @llvm.memcpy.p0.p0.i64(ptr align 8 %7, ptr align 8 %8, i64 8, i1 false)
  %9 = call noundef double @_ZNKSt6chrono8durationIdSt5ratioILl1ELl1000EEE5countEv(ptr noundef nonnull align 8 dereferenceable(8) %7)
  %10 = load ptr, ptr %5, align 8
  %11 = load double, ptr %10, align 8
  %12 = fmul double %9, %11
  store double %12, ptr %6, align 8
  call void @_ZNSt6chrono8durationIdSt5ratioILl1ELl1000EEEC2IdvEERKT_(ptr noundef nonnull align 8 dereferenceable(8) %3, ptr noundef nonnull align 8 dereferenceable(8) %6)
  %13 = getelementptr inbounds %"class.std::chrono::duration.8", ptr %3, i32 0, i32 0
  %14 = load double, ptr %13, align 8
  ret double %14
}

; Function Attrs: mustprogress nounwind uwtable
define linkonce_odr noundef double @_ZNKSt6chrono8durationIdSt5ratioILl1ELl1000EEE5countEv(ptr noundef nonnull align 8 dereferenceable(8) %0) #5 comdat align 2 {
  %2 = alloca ptr, align 8
  store ptr %0, ptr %2, align 8
  %3 = load ptr, ptr %2, align 8
  %4 = getelementptr inbounds %"class.std::chrono::duration.8", ptr %3, i32 0, i32 0
  %5 = load double, ptr %4, align 8
  ret double %5
}

; Function Attrs: mustprogress uwtable
define linkonce_odr double @_ZNSt6chrono13duration_castINS_8durationIdSt5ratioILl1ELl1000EEEElS2_ILl1ELl1000000000EEEENSt9enable_ifIXsr13__is_durationIT_EE5valueES7_E4typeERKNS1_IT0_T1_EE(ptr noundef nonnull align 8 dereferenceable(8) %0) #4 comdat {
  %2 = alloca %"class.std::chrono::duration.8", align 8
  %3 = alloca ptr, align 8
  store ptr %0, ptr %3, align 8
  %4 = load ptr, ptr %3, align 8
  %5 = call double @_ZNSt6chrono20__duration_cast_implINS_8durationIdSt5ratioILl1ELl1000EEEES2_ILl1ELl1000000EEdLb1ELb0EE6__castIlS2_ILl1ELl1000000000EEEES4_RKNS1_IT_T0_EE(ptr noundef nonnull align 8 dereferenceable(8) %4)
  %6 = getelementptr inbounds %"class.std::chrono::duration.8", ptr %2, i32 0, i32 0
  store double %5, ptr %6, align 8
  %7 = getelementptr inbounds %"class.std::chrono::duration.8", ptr %2, i32 0, i32 0
  %8 = load double, ptr %7, align 8
  ret double %8
}

; Function Attrs: mustprogress uwtable
define linkonce_odr i64 @_ZNSt6chronomiIlSt5ratioILl1ELl1000000000EElS2_EENSt11common_typeIJNS_8durationIT_T0_EENS4_IT1_T2_EEEE4typeERKS7_RKSA_(ptr noundef nonnull align 8 dereferenceable(8) %0, ptr noundef nonnull align 8 dereferenceable(8) %1) #4 comdat {
  %3 = alloca %"class.std::chrono::duration", align 8
  %4 = alloca ptr, align 8
  %5 = alloca ptr, align 8
  %6 = alloca i64, align 8
  %7 = alloca %"class.std::chrono::duration", align 8
  %8 = alloca %"class.std::chrono::duration", align 8
  store ptr %0, ptr %4, align 8
  store ptr %1, ptr %5, align 8
  %9 = load ptr, ptr %4, align 8
  call void @llvm.memcpy.p0.p0.i64(ptr align 8 %7, ptr align 8 %9, i64 8, i1 false)
  %10 = call noundef i64 @_ZNKSt6chrono8durationIlSt5ratioILl1ELl1000000000EEE5countEv(ptr noundef nonnull align 8 dereferenceable(8) %7)
  %11 = load ptr, ptr %5, align 8
  call void @llvm.memcpy.p0.p0.i64(ptr align 8 %8, ptr align 8 %11, i64 8, i1 false)
  %12 = call noundef i64 @_ZNKSt6chrono8durationIlSt5ratioILl1ELl1000000000EEE5countEv(ptr noundef nonnull align 8 dereferenceable(8) %8)
  %13 = sub nsw i64 %10, %12
  store i64 %13, ptr %6, align 8
  call void @_ZNSt6chrono8durationIlSt5ratioILl1ELl1000000000EEEC2IlvEERKT_(ptr noundef nonnull align 8 dereferenceable(8) %3, ptr noundef nonnull align 8 dereferenceable(8) %6)
  %14 = getelementptr inbounds %"class.std::chrono::duration", ptr %3, i32 0, i32 0
  %15 = load i64, ptr %14, align 8
  ret i64 %15
}

; Function Attrs: mustprogress nounwind uwtable
define linkonce_odr i64 @_ZNKSt6chrono10time_pointINS_3_V212steady_clockENS_8durationIlSt5ratioILl1ELl1000000000EEEEE16time_since_epochEv(ptr noundef nonnull align 8 dereferenceable(8) %0) #5 comdat align 2 {
  %2 = alloca %"class.std::chrono::duration", align 8
  %3 = alloca ptr, align 8
  store ptr %0, ptr %3, align 8
  %4 = load ptr, ptr %3, align 8
  %5 = getelementptr inbounds %"class.std::chrono::time_point", ptr %4, i32 0, i32 0
  call void @llvm.memcpy.p0.p0.i64(ptr align 8 %2, ptr align 8 %5, i64 8, i1 false)
  %6 = getelementptr inbounds %"class.std::chrono::duration", ptr %2, i32 0, i32 0
  %7 = load i64, ptr %6, align 8
  ret i64 %7
}

; Function Attrs: mustprogress nounwind uwtable
define linkonce_odr noundef ptr @_ZNKSt6vectorIcSaIcEE11_M_data_ptrIcEEPT_S4_(ptr noundef nonnull align 8 dereferenceable(24) %0, ptr noundef %1) #5 comdat align 2 {
  %3 = alloca ptr, align 8
  %4 = alloca ptr, align 8
  store ptr %0, ptr %3, align 8
  store ptr %1, ptr %4, align 8
  %5 = load ptr, ptr %4, align 8
  ret ptr %5
}

; Function Attrs: mustprogress uwtable
define linkonce_odr double @_ZNSt6chronomlIddSt5ratioILl1ELl1000EEEENS_8durationINSt9enable_ifIXsr14is_convertibleIRKT_NSt11common_typeIJT0_S5_EE4typeEEE5valueESB_E4typeET1_EES7_RKNS3_IS9_SE_EE(ptr noundef nonnull align 8 dereferenceable(8) %0, ptr noundef nonnull align 8 dereferenceable(8) %1) #4 comdat {
  %3 = alloca %"class.std::chrono::duration.8", align 8
  %4 = alloca ptr, align 8
  %5 = alloca ptr, align 8
  store ptr %0, ptr %4, align 8
  store ptr %1, ptr %5, align 8
  %6 = load ptr, ptr %5, align 8
  %7 = load ptr, ptr %4, align 8
  %8 = call double @_ZNSt6chronomlIdSt5ratioILl1ELl1000EEdEENS_8durationINSt9enable_ifIXsr14is_convertibleIRKT1_NSt11common_typeIJT_S5_EE4typeEEE5valueESB_E4typeET0_EERKNS3_IS9_SE_EES7_(ptr noundef nonnull align 8 dereferenceable(8) %6, ptr noundef nonnull align 8 dereferenceable(8) %7)
  %9 = getelementptr inbounds %"class.std::chrono::duration.8", ptr %3, i32 0, i32 0
  store double %8, ptr %9, align 8
  %10 = getelementptr inbounds %"class.std::chrono::duration.8", ptr %3, i32 0, i32 0
  %11 = load double, ptr %10, align 8
  ret double %11
}

; Function Attrs: mustprogress uwtable
define linkonce_odr void @_ZNSt6chrono8durationIdSt5ratioILl1ELl1000EEEC2IlS1_ILl1ELl1000000000EEvEERKNS0_IT_T0_EE(ptr noundef nonnull align 8 dereferenceable(8) %0, ptr noundef nonnull align 8 dereferenceable(8) %1) unnamed_addr #4 comdat align 2 {
  %3 = alloca ptr, align 8
  %4 = alloca ptr, align 8
  %5 = alloca %"class.std::chrono::duration.8", align 8
  store ptr %0, ptr %3, align 8
  store ptr %1, ptr %4, align 8
  %6 = load ptr, ptr %3, align 8
  %7 = getelementptr inbounds %"class.std::chrono::duration.8", ptr %6, i32 0, i32 0
  %8 = load ptr, ptr %4, align 8
  %9 = call double @_ZNSt6chrono13duration_castINS_8durationIdSt5ratioILl1ELl1000EEEElS2_ILl1ELl1000000000EEEENSt9enable_ifIXsr13__is_durationIT_EE5valueES7_E4typeERKNS1_IT0_T1_EE(ptr noundef nonnull align 8 dereferenceable(8) %8)
  %10 = getelementptr inbounds %"class.std::chrono::duration.8", ptr %5, i32 0, i32 0
  store double %9, ptr %10, align 8
  %11 = call noundef double @_ZNKSt6chrono8durationIdSt5ratioILl1ELl1000EEE5countEv(ptr noundef nonnull align 8 dereferenceable(8) %5)
  store double %11, ptr %7, align 8
  ret void
}

; Function Attrs: mustprogress uwtable
define linkonce_odr i64 @_ZNSt6chronomiINS_3_V212steady_clockENS_8durationIlSt5ratioILl1ELl1000000000EEEES6_EENSt11common_typeIJT0_T1_EE4typeERKNS_10time_pointIT_S8_EERKNSC_ISD_S9_EE(ptr noundef nonnull align 8 dereferenceable(8) %0, ptr noundef nonnull align 8 dereferenceable(8) %1) #4 comdat {
  %3 = alloca %"class.std::chrono::duration", align 8
  %4 = alloca ptr, align 8
  %5 = alloca ptr, align 8
  %6 = alloca %"class.std::chrono::duration", align 8
  %7 = alloca %"class.std::chrono::duration", align 8
  store ptr %0, ptr %4, align 8
  store ptr %1, ptr %5, align 8
  %8 = load ptr, ptr %4, align 8
  %9 = call i64 @_ZNKSt6chrono10time_pointINS_3_V212steady_clockENS_8durationIlSt5ratioILl1ELl1000000000EEEEE16time_since_epochEv(ptr noundef nonnull align 8 dereferenceable(8) %8)
  %10 = getelementptr inbounds %"class.std::chrono::duration", ptr %6, i32 0, i32 0
  store i64 %9, ptr %10, align 8
  %11 = load ptr, ptr %5, align 8
  %12 = call i64 @_ZNKSt6chrono10time_pointINS_3_V212steady_clockENS_8durationIlSt5ratioILl1ELl1000000000EEEEE16time_since_epochEv(ptr noundef nonnull align 8 dereferenceable(8) %11)
  %13 = getelementptr inbounds %"class.std::chrono::duration", ptr %7, i32 0, i32 0
  store i64 %12, ptr %13, align 8
  %14 = call i64 @_ZNSt6chronomiIlSt5ratioILl1ELl1000000000EElS2_EENSt11common_typeIJNS_8durationIT_T0_EENS4_IT1_T2_EEEE4typeERKS7_RKSA_(ptr noundef nonnull align 8 dereferenceable(8) %6, ptr noundef nonnull align 8 dereferenceable(8) %7)
  %15 = getelementptr inbounds %"class.std::chrono::duration", ptr %3, i32 0, i32 0
  store i64 %14, ptr %15, align 8
  %16 = getelementptr inbounds %"class.std::chrono::duration", ptr %3, i32 0, i32 0
  %17 = load i64, ptr %16, align 8
  ret i64 %17
}

; Function Attrs: mustprogress nounwind uwtable
define linkonce_odr noundef ptr @_ZNSt6vectorIcSaIcEE4dataEv(ptr noundef nonnull align 8 dereferenceable(24) %0) #5 comdat align 2 {
  %2 = alloca ptr, align 8
  store ptr %0, ptr %2, align 8
  %3 = load ptr, ptr %2, align 8
  %4 = getelementptr inbounds %"struct.std::_Vector_base.7", ptr %3, i32 0, i32 0
  %5 = getelementptr inbounds %"struct.std::_Vector_base<char, std::allocator<char>>::_Vector_impl_data", ptr %4, i32 0, i32 0
  %6 = load ptr, ptr %5, align 8
  %7 = call noundef ptr @_ZNKSt6vectorIcSaIcEE11_M_data_ptrIcEEPT_S4_(ptr noundef nonnull align 8 dereferenceable(24) %3, ptr noundef %6) #3
  ret ptr %7
}

; Function Attrs: mustprogress uwtable
define noundef zeroext i1 @_ZN8LightGBM8Boosting18LoadFileToBoostingEPS0_PKc(ptr noundef %0, ptr noundef %1) #4 align 2 personality ptr @__gxx_personality_v0 {
  %3 = alloca i1, align 1
  %4 = alloca ptr, align 8
  %5 = alloca ptr, align 8
  %6 = alloca %"class.std::chrono::time_point", align 8
  %7 = alloca %"class.LightGBM::TextReader", align 8
  %8 = alloca i64, align 8
  %9 = alloca %"class.std::vector.6", align 8
  %10 = alloca ptr, align 8
  %11 = alloca i32, align 4
  %12 = alloca i32, align 4
  %13 = alloca %"class.std::chrono::duration.8", align 8
  %14 = alloca %"class.std::chrono::duration", align 8
  %15 = alloca %"class.std::chrono::time_point", align 8
  %16 = alloca %"class.std::chrono::duration.8", align 8
  %17 = alloca double, align 8
  store ptr %0, ptr %4, align 8
  store ptr %1, ptr %5, align 8
  %18 = call i64 @_ZNSt6chrono3_V212steady_clock3nowEv() #3
  %19 = getelementptr inbounds %"class.std::chrono::time_point", ptr %6, i32 0, i32 0
  %20 = getelementptr inbounds %"class.std::chrono::duration", ptr %19, i32 0, i32 0
  store i64 %18, ptr %20, align 8
  %21 = load ptr, ptr %4, align 8
  %22 = icmp ne ptr %21, null
  br i1 %22, label %23, label %48

23:                                               ; preds = %2
  %24 = load ptr, ptr %5, align 8
  call void @_ZN8LightGBM10TextReaderImEC2EPKcbm(ptr noundef nonnull align 8 dereferenceable(116) %7, ptr noundef %24, i1 noundef zeroext true, i64 noundef -1)
  store i64 0, ptr %8, align 8
  invoke void @_ZN8LightGBM10TextReaderImE11ReadContentEPm(ptr dead_on_unwind writable sret(%"class.std::vector.6") align 8 %9, ptr noundef nonnull align 8 dereferenceable(116) %7, ptr noundef %8)
          to label %25 unwind label %35

25:                                               ; preds = %23
  %26 = load ptr, ptr %4, align 8
  %27 = call noundef ptr @_ZNSt6vectorIcSaIcEE4dataEv(ptr noundef nonnull align 8 dereferenceable(24) %9) #3
  %28 = load i64, ptr %8, align 8
  %29 = load ptr, ptr %26, align 8
  %30 = getelementptr inbounds ptr, ptr %29, i64 31
  %31 = load ptr, ptr %30, align 8
  %32 = invoke noundef zeroext i1 %31(ptr noundef nonnull align 8 dereferenceable(8) %26, ptr noundef %27, i64 noundef %28)
          to label %33 unwind label %39

33:                                               ; preds = %25
  br i1 %32, label %43, label %34

34:                                               ; preds = %33
  store i1 false, ptr %3, align 1
  store i32 1, ptr %12, align 4
  br label %44

35:                                               ; preds = %23
  %36 = landingpad { ptr, i32 }
          cleanup
  %37 = extractvalue { ptr, i32 } %36, 0
  store ptr %37, ptr %10, align 8
  %38 = extractvalue { ptr, i32 } %36, 1
  store i32 %38, ptr %11, align 4
  br label %47

39:                                               ; preds = %25
  %40 = landingpad { ptr, i32 }
          cleanup
  %41 = extractvalue { ptr, i32 } %40, 0
  store ptr %41, ptr %10, align 8
  %42 = extractvalue { ptr, i32 } %40, 1
  store i32 %42, ptr %11, align 4
  call void @_ZNSt6vectorIcSaIcEED2Ev(ptr noundef nonnull align 8 dereferenceable(24) %9) #3
  br label %47

43:                                               ; preds = %33
  store i32 0, ptr %12, align 4
  br label %44

44:                                               ; preds = %43, %34
  call void @_ZNSt6vectorIcSaIcEED2Ev(ptr noundef nonnull align 8 dereferenceable(24) %9) #3
  call void @_ZN8LightGBM10TextReaderImED2Ev(ptr noundef nonnull align 8 dereferenceable(116) %7) #3
  %45 = load i32, ptr %12, align 4
  switch i32 %45, label %65 [
    i32 0, label %46
    i32 1, label %58
  ]

46:                                               ; preds = %44
  br label %48

47:                                               ; preds = %39, %35
  call void @_ZN8LightGBM10TextReaderImED2Ev(ptr noundef nonnull align 8 dereferenceable(116) %7) #3
  br label %60

48:                                               ; preds = %46, %2
  %49 = call i64 @_ZNSt6chrono3_V212steady_clock3nowEv() #3
  %50 = getelementptr inbounds %"class.std::chrono::time_point", ptr %15, i32 0, i32 0
  %51 = getelementptr inbounds %"class.std::chrono::duration", ptr %50, i32 0, i32 0
  store i64 %49, ptr %51, align 8
  %52 = call i64 @_ZNSt6chronomiINS_3_V212steady_clockENS_8durationIlSt5ratioILl1ELl1000000000EEEES6_EENSt11common_typeIJT0_T1_EE4typeERKNS_10time_pointIT_S8_EERKNSC_ISD_S9_EE(ptr noundef nonnull align 8 dereferenceable(8) %15, ptr noundef nonnull align 8 dereferenceable(8) %6)
  %53 = getelementptr inbounds %"class.std::chrono::duration", ptr %14, i32 0, i32 0
  store i64 %52, ptr %53, align 8
  call void @_ZNSt6chrono8durationIdSt5ratioILl1ELl1000EEEC2IlS1_ILl1ELl1000000000EEvEERKNS0_IT_T0_EE(ptr noundef nonnull align 8 dereferenceable(8) %13, ptr noundef nonnull align 8 dereferenceable(8) %14)
  store double 1.000000e-03, ptr %17, align 8
  %54 = call double @_ZNSt6chronomlIddSt5ratioILl1ELl1000EEEENS_8durationINSt9enable_ifIXsr14is_convertibleIRKT_NSt11common_typeIJT0_S5_EE4typeEEE5valueESB_E4typeET1_EES7_RKNS3_IS9_SE_EE(ptr noundef nonnull align 8 dereferenceable(8) %17, ptr noundef nonnull align 8 dereferenceable(8) %13)
  %55 = getelementptr inbounds %"class.std::chrono::duration.8", ptr %16, i32 0, i32 0
  store double %54, ptr %55, align 8
  %56 = getelementptr inbounds %"class.std::chrono::duration.8", ptr %16, i32 0, i32 0
  %57 = load double, ptr %56, align 8
  call void (ptr, ...) @_ZN8LightGBM3Log5DebugEPKcz(ptr noundef @.str.8, double %57)
  store i1 true, ptr %3, align 1
  br label %58

58:                                               ; preds = %48, %44
  %59 = load i1, ptr %3, align 1
  ret i1 %59

60:                                               ; preds = %47
  %61 = load ptr, ptr %10, align 8
  %62 = load i32, ptr %11, align 4
  %63 = insertvalue { ptr, i32 } poison, ptr %61, 0
  %64 = insertvalue { ptr, i32 } %63, i32 %62, 1
  resume { ptr, i32 } %64

65:                                               ; preds = %44
  unreachable
}