; Function Attrs: mustprogress uwtable
define noundef zeroext i1 @_ZN8LightGBM8Boosting18LoadFileToBoostingEPS0_PKc(ptr noundef %0, ptr noundef %1) local_unnamed_addr #3 align 2 personality ptr @__gxx_personality_v0 {
  %3 = alloca %"class.LightGBM::TextReader", align 8
  %4 = alloca i64, align 8
  %5 = alloca %"class.std::vector.6", align 8
  %6 = tail call i64 @_ZNSt6chrono3_V212steady_clock3nowEv() #15
  %.not = icmp eq ptr %0, null
  br i1 %.not, label %23, label %7

7:                                                ; preds = %2
  call void @_ZN8LightGBM10TextReaderImEC2EPKcbm(ptr noundef nonnull align 8 dereferenceable(116) %3, ptr noundef %1, i1 noundef zeroext true, i64 noundef -1)
  store i64 0, ptr %4, align 8
  invoke void @_ZN8LightGBM10TextReaderImE11ReadContentEPm(ptr dead_on_unwind nonnull writable sret(%"class.std::vector.6") align 8 %5, ptr noundef nonnull align 8 dereferenceable(116) %3, ptr noundef nonnull %4)
          to label %8 unwind label %15

8:                                                ; preds = %7
  %9 = load ptr, ptr %5, align 8
  %10 = load i64, ptr %4, align 8
  %11 = load ptr, ptr %0, align 8
  %12 = getelementptr inbounds i8, ptr %11, i64 248
  %13 = load ptr, ptr %12, align 8
  %14 = invoke noundef zeroext i1 %13(ptr noundef nonnull align 8 dereferenceable(8) %0, ptr noundef %9, i64 noundef %10)
          to label %19 unwind label %17

15:                                               ; preds = %7
  %16 = landingpad { ptr, i32 }
          cleanup
  br label %22

17:                                               ; preds = %8
  %18 = landingpad { ptr, i32 }
          cleanup
  call void @_ZNSt6vectorIcSaIcEED2Ev(ptr noundef nonnull align 8 dereferenceable(24) %5) #15
  br label %22

19:                                               ; preds = %8
  %20 = load ptr, ptr %5, align 8
  %.not.i.i.i = icmp eq ptr %20, null
  br i1 %.not.i.i.i, label %_ZNSt6vectorIcSaIcEED2Ev.exit, label %21

21:                                               ; preds = %19
  call void @_ZdlPv(ptr noundef nonnull %20) #24
  br label %_ZNSt6vectorIcSaIcEED2Ev.exit

_ZNSt6vectorIcSaIcEED2Ev.exit:                    ; preds = %19, %21
  call void @_ZNSaIcED2Ev(ptr noundef nonnull align 1 dereferenceable(1) %5) #15
  call void @_ZN8LightGBM10TextReaderImED2Ev(ptr noundef nonnull align 8 dereferenceable(116) %3) #15
  br i1 %14, label %23, label %29

22:                                               ; preds = %17, %15
  %.pn = phi { ptr, i32 } [ %18, %17 ], [ %16, %15 ]
  call void @_ZN8LightGBM10TextReaderImED2Ev(ptr noundef nonnull align 8 dereferenceable(116) %3) #15
  resume { ptr, i32 } %.pn

23:                                               ; preds = %_ZNSt6vectorIcSaIcEED2Ev.exit, %2
  %24 = call i64 @_ZNSt6chrono3_V212steady_clock3nowEv() #15
  %25 = sub nsw i64 %24, %6
  %26 = sitofp i64 %25 to double
  %27 = fdiv double %26, 1.000000e+06
  %28 = fmul double %27, 1.000000e-03
  call void (ptr, ...) @_ZN8LightGBM3Log5DebugEPKcz(ptr noundef nonnull @.str.8, double %28)
  br label %29

29:                                               ; preds = %_ZNSt6vectorIcSaIcEED2Ev.exit, %23
  %.1 = phi i1 [ false, %_ZNSt6vectorIcSaIcEED2Ev.exit ], [ true, %23 ]
  ret i1 %.1
}